; Function Attrs: mustprogress uwtable
define hidden noundef nonnull align 8 dereferenceable(8) ptr @_ZNK14parametric_cmd7pdescrsER11cmd_context(ptr noundef nonnull align 8 dereferenceable(56) %0, ptr noundef nonnull align 8 dereferenceable(896) %1) local_unnamed_addr #3 align 2 {
  %3 = getelementptr inbounds nuw i8, ptr %0, i64 48
  %4 = load ptr, ptr %3, align 8, !tbaa !26
  %.not = icmp eq ptr %4, null
  br i1 %.not, label %5, label %15

5:                                                ; preds = %2
  %6 = tail call noalias noundef ptr @_ZN6memory8allocateEm(i64 noundef 8)
  tail call void @_ZN12param_descrsC1Ev(ptr noundef nonnull align 8 dereferenceable(8) %6)
  %7 = load ptr, ptr %3, align 8, !tbaa !26
  %.not.i = icmp eq ptr %7, %6
  br i1 %.not.i, label %_ZN10scoped_ptrI12param_descrsEaSEPS0_.exit, label %8

8:                                                ; preds = %5
  %9 = icmp eq ptr %7, null
  br i1 %9, label %_Z7deallocI12param_descrsEvPT_.exit.i, label %10

10:                                               ; preds = %8
  tail call void @_ZN12param_descrsD1Ev(ptr noundef nonnull align 8 dereferenceable(8) %7) #21
  tail call void @_ZN6memory10deallocateEPv(ptr noundef nonnull %7)
  br label %_Z7deallocI12param_descrsEvPT_.exit.i

_Z7deallocI12param_descrsEvPT_.exit.i:            ; preds = %10, %8
  store ptr %6, ptr %3, align 8, !tbaa !26
  br label %_ZN10scoped_ptrI12param_descrsEaSEPS0_.exit

_ZN10scoped_ptrI12param_descrsEaSEPS0_.exit:      ; preds = %5, %_Z7deallocI12param_descrsEvPT_.exit.i
  %11 = phi ptr [ %7, %5 ], [ %6, %_Z7deallocI12param_descrsEvPT_.exit.i ]
  %12 = load ptr, ptr %0, align 8, !tbaa !22
  %13 = getelementptr inbounds nuw i8, ptr %12, i64 224
  %14 = load ptr, ptr %13, align 8
  tail call void %14(ptr noundef nonnull align 8 dereferenceable(56) %0, ptr noundef nonnull align 8 dereferenceable(896) %1, ptr noundef nonnull align 8 dereferenceable(8) %11)
  %.pre = load ptr, ptr %3, align 8, !tbaa !26
  br label %15

15:                                               ; preds = %_ZN10scoped_ptrI12param_descrsEaSEPS0_.exit, %2
  %16 = phi ptr [ %.pre, %_ZN10scoped_ptrI12param_descrsEaSEPS0_.exit ], [ %4, %2 ]
  ret ptr %16
}